; Function Attrs: mustprogress nounwind uwtable
define internal fastcc void @_ZN6hermes12_GLOBAL__N_15GenJS5visitEPNS_6ESTree21ContinueStatementNodeE(ptr noundef nonnull align 8 captures(none) dereferenceable(16) %this, ptr noundef readonly captures(none) %node) unnamed_addr #0 align 2 {
entry:
  %0 = load ptr, ptr %this, align 8
  %OutBufEnd.i5.i = getelementptr inbounds nuw i8, ptr %0, i64 16
  %1 = load ptr, ptr %OutBufEnd.i5.i, align 8
  %OutBufCur.i6.i = getelementptr inbounds nuw i8, ptr %0, i64 24
  %2 = load ptr, ptr %OutBufCur.i6.i, align 8
  %sub.ptr.lhs.cast.i7.i = ptrtoint ptr %1 to i64
  %sub.ptr.rhs.cast.i8.i = ptrtoint ptr %2 to i64
  %sub.ptr.sub.i9.i = sub i64 %sub.ptr.lhs.cast.i7.i, %sub.ptr.rhs.cast.i8.i
  %cmp.i.i = icmp ult i64 %sub.ptr.sub.i9.i, 8
  br i1 %cmp.i.i, label %if.then.i.i, label %if.then4.i.i

if.then.i.i:                                      ; preds = %entry
  %call3.i.i = tail call noundef nonnull align 8 dereferenceable(36) ptr @_ZN4llvh11raw_ostream5writeEPKcm(ptr noundef nonnull align 8 dereferenceable(36) %0, ptr noundef nonnull @.str.277, i64 noundef 8) #12
  br label %_ZN4llvh11raw_ostreamlsEPKc.exit

if.then4.i.i:                                     ; preds = %entry
  store i64 7310870969309884259, ptr %2, align 1
  %3 = load ptr, ptr %OutBufCur.i6.i, align 8
  %add.ptr.i.i = getelementptr inbounds nuw i8, ptr %3, i64 8
  store ptr %add.ptr.i.i, ptr %OutBufCur.i6.i, align 8
  br label %_ZN4llvh11raw_ostreamlsEPKc.exit

_ZN4llvh11raw_ostreamlsEPKc.exit:                 ; preds = %if.then.i.i, %if.then4.i.i
  %_label = getelementptr inbounds nuw i8, ptr %node, i64 56
  %4 = load ptr, ptr %_label, align 8
  %tobool.not = icmp eq ptr %4, null
  br i1 %tobool.not, label %if.end, label %if.then

if.then:                                          ; preds = %_ZN4llvh11raw_ostreamlsEPKc.exit
  %5 = load ptr, ptr %this, align 8
  %OutBufCur.i = getelementptr inbounds nuw i8, ptr %5, i64 24
  %6 = load ptr, ptr %OutBufCur.i, align 8
  %OutBufEnd.i = getelementptr inbounds nuw i8, ptr %5, i64 16
  %7 = load ptr, ptr %OutBufEnd.i, align 8
  %cmp.not.i = icmp ult ptr %6, %7
  br i1 %cmp.not.i, label %if.end.i, label %if.then.i

if.then.i:                                        ; preds = %if.then
  %call.i = tail call noundef nonnull align 8 dereferenceable(36) ptr @_ZN4llvh11raw_ostream5writeEh(ptr noundef nonnull align 8 dereferenceable(36) %5, i8 noundef zeroext 32) #12
  br label %_ZN4llvh11raw_ostreamlsEc.exit

if.end.i:                                         ; preds = %if.then
  %incdec.ptr.i = getelementptr inbounds nuw i8, ptr %6, i64 1
  store ptr %incdec.ptr.i, ptr %OutBufCur.i, align 8
  store i8 32, ptr %6, align 1
  br label %_ZN4llvh11raw_ostreamlsEc.exit

_ZN4llvh11raw_ostreamlsEc.exit:                   ; preds = %if.then.i, %if.end.i
  %8 = load ptr, ptr %_label, align 8
  tail call fastcc void @_ZN6hermes6ESTree24RecursiveVisitorDispatchINS_12_GLOBAL__N_15GenJSELb1EE5visitERS3_PNS0_4NodeES7_(ptr noundef nonnull align 8 dereferenceable(16) %this, ptr noundef %8)
  br label %if.end

if.end:                                           ; preds = %_ZN4llvh11raw_ostreamlsEc.exit, %_ZN4llvh11raw_ostreamlsEPKc.exit
  ret void
}